target datalayout = "e-m:e-p270:32:32-p271:32:32-p272:64:64-i64:64-i128:128-f80:128-n8:16:32:64-S128"
target triple = "x86_64-pc-linux-gnu"

%struct.jar_xm_context_s = type { ptr, %struct.jar_xm_module_s, i32, i16, i16, float, i16, i16, float, float, float, i8, i8, i16, float, i64, i8, i8, i8, i8, i16, ptr, i8, i8, ptr }
%struct.jar_xm_module_s = type { [21 x i8], [21 x i8], i16, i16, i16, i16, i16, i16, i16, i32, [256 x i8], ptr, ptr }

; Function Attrs: nounwind uwtable
define hidden void @jar_xm_set_max_loop_count(ptr noundef %0, i8 noundef zeroext %1) #0 {
  %3 = alloca ptr, align 8
  %4 = alloca i8, align 1
  store ptr %0, ptr %3, align 8
  store i8 %1, ptr %4, align 1
  %5 = load i8, ptr %4, align 1
  %6 = load ptr, ptr %3, align 8
  %7 = getelementptr inbounds nuw %struct.jar_xm_context_s, ptr %6, i32 0, i32 23
  store i8 %5, ptr %7, align 1
  ret void
}

; Function Attrs: nounwind uwtable
define hidden zeroext i8 @jar_xm_get_loop_count(ptr noundef %0) #0 {
  %2 = alloca ptr, align 8
  store ptr %0, ptr %2, align 8
  %3 = load ptr, ptr %2, align 8
  %4 = getelementptr inbounds nuw %struct.jar_xm_context_s, ptr %3, i32 0, i32 22
  %5 = load i8, ptr %4, align 8
  ret i8 %5
}

; Function Attrs: nounwind uwtable
define hidden i64 @jar_xm_get_remaining_samples(ptr noundef %0) #0 {
  %2 = alloca ptr, align 8
  %3 = alloca i64, align 8
  %4 = alloca i8, align 1
  store ptr %0, ptr %2, align 8
  call void @llvm.lifetime.start.p0(i64 8, ptr %3) #21
  store i64 0, ptr %3, align 8
  call void @llvm.lifetime.start.p0(i64 1, ptr %4) #21
  %5 = load ptr, ptr %2, align 8
  %6 = call zeroext i8 @jar_xm_get_loop_count(ptr noundef %5)
  store i8 %6, ptr %4, align 1
  %7 = load ptr, ptr %2, align 8
  call void @jar_xm_set_max_loop_count(ptr noundef %7, i8 noundef zeroext 0)
  br label %8

8:                                                ; preds = %15, %1
  %9 = load ptr, ptr %2, align 8
  %10 = call zeroext i8 @jar_xm_get_loop_count(ptr noundef %9)
  %11 = zext i8 %10 to i32
  %12 = load i8, ptr %4, align 1
  %13 = zext i8 %12 to i32
  %14 = icmp eq i32 %11, %13
  br i1 %14, label %15, label %26

15:                                               ; preds = %8
  %16 = load ptr, ptr %2, align 8
  %17 = getelementptr inbounds nuw %struct.jar_xm_context_s, ptr %16, i32 0, i32 14
  %18 = load float, ptr %17, align 8
  %19 = load i64, ptr %3, align 8
  %20 = uitofp i64 %19 to float
  %21 = fadd float %20, %18
  %22 = fptoui float %21 to i64
  store i64 %22, ptr %3, align 8
  %23 = load ptr, ptr %2, align 8
  %24 = getelementptr inbounds nuw %struct.jar_xm_context_s, ptr %23, i32 0, i32 14
  store float 0.000000e+00, ptr %24, align 8
  %25 = load ptr, ptr %2, align 8
  call void @jar_xm_tick(ptr noundef %25)
  br label %8

26:                                               ; preds = %8
  %27 = load i8, ptr %4, align 1
  %28 = load ptr, ptr %2, align 8
  %29 = getelementptr inbounds nuw %struct.jar_xm_context_s, ptr %28, i32 0, i32 22
  store i8 %27, ptr %29, align 8
  %30 = load i64, ptr %3, align 8
  call void @llvm.lifetime.end.p0(i64 1, ptr %4) #21
  call void @llvm.lifetime.end.p0(i64 8, ptr %3) #21
  ret i64 %30
}