; Function Attrs: nounwind uwtable
define hidden i64 @jar_xm_get_remaining_samples(ptr noundef initializes((409, 410)) %0) local_unnamed_addr #7 {
.lr.ph:
  %1 = getelementptr inbounds nuw i8, ptr %0, i64 408
  %2 = load i8, ptr %1, align 8
  %3 = getelementptr inbounds nuw i8, ptr %0, i64 409
  store i8 0, ptr %3, align 1
  %4 = getelementptr inbounds nuw i8, ptr %0, i64 376
  br label %5

5:                                                ; preds = %.lr.ph, %5
  %.010 = phi i64 [ 0, %.lr.ph ], [ %9, %5 ]
  %6 = load float, ptr %4, align 8
  %7 = uitofp i64 %.010 to float
  %8 = fadd float %6, %7
  %9 = fptoui float %8 to i64
  store float 0.000000e+00, ptr %4, align 8
  tail call fastcc void @jar_xm_tick(ptr noundef nonnull %0)
  %10 = load i8, ptr %1, align 8
  %11 = icmp eq i8 %10, %2
  br i1 %11, label %5, label %._crit_edge

._crit_edge:                                      ; preds = %5
  store i8 %2, ptr %1, align 8
  ret i64 %9
}